; Function Attrs: nounwind uwtable
define ptr @l_Lean_Linter_MissingDocs_checkDecl(ptr noundef %0, ptr noundef %1, ptr noundef %2, ptr noundef %3) local_unnamed_addr #0 {
  %5 = tail call ptr @l_Lean_Syntax_getArg(ptr noundef %0, ptr noundef nonnull inttoptr (i64 1 to ptr)) #5
  %6 = tail call ptr @l_Lean_Syntax_getArg(ptr noundef %0, ptr noundef nonnull inttoptr (i64 3 to ptr)) #5
  %7 = tail call ptr @l_Lean_Syntax_getArg(ptr noundef %5, ptr noundef nonnull inttoptr (i64 5 to ptr)) #5
  %8 = tail call ptr @l_Lean_Syntax_getArg(ptr noundef %7, ptr noundef nonnull inttoptr (i64 1 to ptr)) #5
  %9 = ptrtoint ptr %7 to i64
  %10 = and i64 %9, 1
  %.not = icmp eq i64 %10, 0
  br i1 %.not, label %11, label %lean_dec.exit34

11:                                               ; preds = %4
  %12 = load i32, ptr %7, align 4, !tbaa !8
  %13 = icmp sgt i32 %12, 1
  br i1 %13, label %14, label %16, !prof !11

14:                                               ; preds = %11
  %15 = add nsw i32 %12, -1
  store i32 %15, ptr %7, align 4, !tbaa !8
  br label %lean_dec.exit34

16:                                               ; preds = %11
  %.not.i = icmp eq i32 %12, 0
  br i1 %.not.i, label %lean_dec.exit34, label %17

17:                                               ; preds = %16
  tail call void @lean_dec_ref_cold(ptr noundef nonnull %7) #5
  br label %lean_dec.exit34

lean_dec.exit34:                                  ; preds = %17, %16, %14, %4
  %18 = tail call ptr @l_Lean_Syntax_getKind(ptr noundef %8) #5
  %19 = load ptr, ptr @l_Lean_Linter_MissingDocs_declModifiersPubNoDoc___closed__3, align 8, !tbaa !4
  %20 = tail call zeroext i8 @lean_name_eq(ptr noundef %18, ptr noundef %19) #5
  %21 = ptrtoint ptr %18 to i64
  %22 = and i64 %21, 1
  %.not45 = icmp eq i64 %22, 0
  br i1 %.not45, label %23, label %lean_dec.exit33

23:                                               ; preds = %lean_dec.exit34
  %24 = load i32, ptr %18, align 4, !tbaa !8
  %25 = icmp sgt i32 %24, 1
  br i1 %25, label %26, label %28, !prof !11

26:                                               ; preds = %23
  %27 = add nsw i32 %24, -1
  store i32 %27, ptr %18, align 4, !tbaa !8
  br label %lean_dec.exit33

28:                                               ; preds = %23
  %.not.i35 = icmp eq i32 %24, 0
  br i1 %.not.i35, label %lean_dec.exit33, label %29

29:                                               ; preds = %28
  tail call void @lean_dec_ref_cold(ptr noundef nonnull %18) #5
  br label %lean_dec.exit33

lean_dec.exit33:                                  ; preds = %29, %28, %26, %lean_dec.exit34
  %30 = icmp eq i8 %20, 0
  br i1 %30, label %31, label %42

31:                                               ; preds = %lean_dec.exit33
  %32 = tail call ptr @l_Lean_Linter_MissingDocs_checkDecl___lambda__2(ptr noundef %6, ptr noundef %5, ptr nonnull poison, ptr noundef %1, ptr noundef %2, ptr noundef %3)
  %33 = ptrtoint ptr %5 to i64
  %34 = and i64 %33, 1
  %.not49 = icmp eq i64 %34, 0
  br i1 %.not49, label %35, label %lean_dec.exit32

35:                                               ; preds = %31
  %36 = load i32, ptr %5, align 4, !tbaa !8
  %37 = icmp sgt i32 %36, 1
  br i1 %37, label %38, label %40, !prof !11

38:                                               ; preds = %35
  %39 = add nsw i32 %36, -1
  store i32 %39, ptr %5, align 4, !tbaa !8
  br label %lean_dec.exit32

40:                                               ; preds = %35
  %.not.i37 = icmp eq i32 %36, 0
  br i1 %.not.i37, label %lean_dec.exit32, label %41

41:                                               ; preds = %40
  tail call void @lean_dec_ref_cold(ptr noundef nonnull %5) #5
  br label %lean_dec.exit32

42:                                               ; preds = %lean_dec.exit33
  %43 = ptrtoint ptr %6 to i64
  %44 = and i64 %43, 1
  %.not46 = icmp eq i64 %44, 0
  br i1 %.not46, label %45, label %lean_dec.exit31

45:                                               ; preds = %42
  %46 = load i32, ptr %6, align 4, !tbaa !8
  %47 = icmp sgt i32 %46, 1
  br i1 %47, label %48, label %50, !prof !11

48:                                               ; preds = %45
  %49 = add nsw i32 %46, -1
  store i32 %49, ptr %6, align 4, !tbaa !8
  br label %lean_dec.exit31

50:                                               ; preds = %45
  %.not.i39 = icmp eq i32 %46, 0
  br i1 %.not.i39, label %lean_dec.exit31, label %51

51:                                               ; preds = %50
  tail call void @lean_dec_ref_cold(ptr noundef nonnull %6) #5
  br label %lean_dec.exit31

lean_dec.exit31:                                  ; preds = %51, %50, %48, %42
  %52 = ptrtoint ptr %5 to i64
  %53 = and i64 %52, 1
  %.not47 = icmp eq i64 %53, 0
  br i1 %.not47, label %54, label %lean_dec.exit30

54:                                               ; preds = %lean_dec.exit31
  %55 = load i32, ptr %5, align 4, !tbaa !8
  %56 = icmp sgt i32 %55, 1
  br i1 %56, label %57, label %59, !prof !11

57:                                               ; preds = %54
  %58 = add nsw i32 %55, -1
  store i32 %58, ptr %5, align 4, !tbaa !8
  br label %lean_dec.exit30

59:                                               ; preds = %54
  %.not.i41 = icmp eq i32 %55, 0
  br i1 %.not.i41, label %lean_dec.exit30, label %60

60:                                               ; preds = %59
  tail call void @lean_dec_ref_cold(ptr noundef nonnull %5) #5
  br label %lean_dec.exit30

lean_dec.exit30:                                  ; preds = %60, %59, %57, %lean_dec.exit31
  %61 = ptrtoint ptr %1 to i64
  %62 = and i64 %61, 1
  %.not48 = icmp eq i64 %62, 0
  br i1 %.not48, label %63, label %lean_dec.exit

63:                                               ; preds = %lean_dec.exit30
  %64 = load i32, ptr %1, align 4, !tbaa !8
  %65 = icmp sgt i32 %64, 1
  br i1 %65, label %66, label %68, !prof !11

66:                                               ; preds = %63
  %67 = add nsw i32 %64, -1
  store i32 %67, ptr %1, align 4, !tbaa !8
  br label %lean_dec.exit

68:                                               ; preds = %63
  %.not.i43 = icmp eq i32 %64, 0
  br i1 %.not.i43, label %lean_dec.exit, label %69

69:                                               ; preds = %68
  tail call void @lean_dec_ref_cold(ptr noundef nonnull %1) #5
  br label %lean_dec.exit

lean_dec.exit:                                    ; preds = %69, %68, %66, %lean_dec.exit30
  tail call void @lean_inc_heartbeat() #5
  %70 = tail call noalias ptr @mi_malloc_small(i64 noundef 24) #5
  %71 = icmp eq ptr %70, null
  br i1 %71, label %72, label %lean_alloc_ctor.exit

72:                                               ; preds = %lean_dec.exit
  tail call void @lean_internal_panic_out_of_memory() #6
  unreachable

lean_alloc_ctor.exit:                             ; preds = %lean_dec.exit
  %73 = getelementptr inbounds nuw i8, ptr %70, i64 4
  store i32 1, ptr %70, align 4, !tbaa !8
  store i32 131096, ptr %73, align 4
  %74 = getelementptr inbounds nuw i8, ptr %70, i64 8
  store ptr inttoptr (i64 1 to ptr), ptr %74, align 8, !tbaa !4
  %75 = getelementptr inbounds nuw i8, ptr %70, i64 16
  store ptr %3, ptr %75, align 8, !tbaa !4
  br label %lean_dec.exit32

lean_dec.exit32:                                  ; preds = %31, %38, %40, %41, %lean_alloc_ctor.exit
  %.0 = phi ptr [ %70, %lean_alloc_ctor.exit ], [ %32, %41 ], [ %32, %40 ], [ %32, %38 ], [ %32, %31 ]
  ret ptr %.0
}